target datalayout = "e-m:e-p270:32:32-p271:32:32-p272:64:64-i64:64-i128:128-f80:128-n8:16:32:64-S128"
target triple = "x86_64-pc-linux-gnu"

%struct.A_Expr = type { i32, i32, ptr, ptr, ptr, i32 }
%union.ListCell = type { ptr }
%struct.List = type { i32, i32, i32, ptr, [0 x %union.ListCell] }

@.str.40 = private unnamed_addr constant [29 x i8] c"unrecognized A_Expr kind: %d\00", align 1
@.str.41 = private unnamed_addr constant [13 x i8] c"parse_expr.c\00", align 1
@.str.77 = private unnamed_addr constant [3 x i8] c">=\00", align 1
@.str.78 = private unnamed_addr constant [3 x i8] c"<=\00", align 1
@.str.79 = private unnamed_addr constant [2 x i8] c"<\00", align 1
@.str.80 = private unnamed_addr constant [2 x i8] c">\00", align 1
@__func__.transformAExprBetween = private unnamed_addr constant [22 x i8] c"transformAExprBetween\00", align 1

; Function Attrs: inlinehint nounwind uwtable
define internal ptr @list_nth_cell(ptr noundef %0, i32 noundef %1) #4 {
  %3 = alloca ptr, align 8
  %4 = alloca i32, align 4
  store ptr %0, ptr %3, align 8
  store i32 %1, ptr %4, align 4
  %5 = load ptr, ptr %3, align 8
  %6 = getelementptr inbounds nuw %struct.List, ptr %5, i32 0, i32 3
  %7 = load ptr, ptr %6, align 8
  %8 = load i32, ptr %4, align 4
  %9 = sext i32 %8 to i64
  %10 = getelementptr inbounds %union.ListCell, ptr %7, i64 %9
  ret ptr %10
}

; Function Attrs: nounwind uwtable
define internal ptr @transformAExprBetween(ptr noundef %0, ptr noundef %1) #0 {
  %3 = alloca ptr, align 8
  %4 = alloca ptr, align 8
  %5 = alloca ptr, align 8
  %6 = alloca ptr, align 8
  %7 = alloca ptr, align 8
  %8 = alloca ptr, align 8
  %9 = alloca ptr, align 8
  %10 = alloca ptr, align 8
  %11 = alloca ptr, align 8
  %12 = alloca %union.ListCell, align 8
  %13 = alloca %union.ListCell, align 8
  %14 = alloca %union.ListCell, align 8
  %15 = alloca %union.ListCell, align 8
  %16 = alloca %union.ListCell, align 8
  %17 = alloca %union.ListCell, align 8
  %18 = alloca %union.ListCell, align 8
  %19 = alloca %union.ListCell, align 8
  %20 = alloca %union.ListCell, align 8
  %21 = alloca %union.ListCell, align 8
  %22 = alloca %union.ListCell, align 8
  %23 = alloca %union.ListCell, align 8
  %24 = alloca %union.ListCell, align 8
  %25 = alloca %union.ListCell, align 8
  %26 = alloca %union.ListCell, align 8
  %27 = alloca %union.ListCell, align 8
  store ptr %0, ptr %3, align 8
  store ptr %1, ptr %4, align 8
  call void @llvm.lifetime.start.p0(i64 8, ptr %5) #8
  call void @llvm.lifetime.start.p0(i64 8, ptr %6) #8
  call void @llvm.lifetime.start.p0(i64 8, ptr %7) #8
  call void @llvm.lifetime.start.p0(i64 8, ptr %8) #8
  call void @llvm.lifetime.start.p0(i64 8, ptr %9) #8
  call void @llvm.lifetime.start.p0(i64 8, ptr %10) #8
  call void @llvm.lifetime.start.p0(i64 8, ptr %11) #8
  %28 = load ptr, ptr %4, align 8
  %29 = getelementptr inbounds nuw %struct.A_Expr, ptr %28, i32 0, i32 3
  %30 = load ptr, ptr %29, align 8
  store ptr %30, ptr %5, align 8
  %31 = load ptr, ptr %4, align 8
  %32 = getelementptr inbounds nuw %struct.A_Expr, ptr %31, i32 0, i32 4
  %33 = load ptr, ptr %32, align 8
  store ptr %33, ptr %11, align 8
  %34 = load ptr, ptr %11, align 8
  %35 = call ptr @list_nth_cell(ptr noundef %34, i32 noundef 0)
  %36 = load ptr, ptr %35, align 8
  store ptr %36, ptr %6, align 8
  %37 = load ptr, ptr %11, align 8
  %38 = call ptr @list_nth_cell(ptr noundef %37, i32 noundef 1)
  %39 = load ptr, ptr %38, align 8
  store ptr %39, ptr %7, align 8
  %40 = load ptr, ptr %4, align 8
  %41 = getelementptr inbounds nuw %struct.A_Expr, ptr %40, i32 0, i32 1
  %42 = load i32, ptr %41, align 4
  switch i32 %42, label %215 [
    i32 10, label %43
    i32 11, label %67
    i32 12, label %91
    i32 13, label %153
  ]

43:                                               ; preds = %2
  %44 = load ptr, ptr %5, align 8
  %45 = load ptr, ptr %6, align 8
  %46 = load ptr, ptr %4, align 8
  %47 = getelementptr inbounds nuw %struct.A_Expr, ptr %46, i32 0, i32 5
  %48 = load i32, ptr %47, align 8
  %49 = call ptr @makeSimpleA_Expr(i32 noundef 0, ptr noundef @.str.77, ptr noundef %44, ptr noundef %45, i32 noundef %48)
  store ptr %49, ptr %12, align 8
  %50 = load ptr, ptr %5, align 8
  %51 = call ptr @copyObjectImpl(ptr noundef %50)
  %52 = load ptr, ptr %7, align 8
  %53 = load ptr, ptr %4, align 8
  %54 = getelementptr inbounds nuw %struct.A_Expr, ptr %53, i32 0, i32 5
  %55 = load i32, ptr %54, align 8
  %56 = call ptr @makeSimpleA_Expr(i32 noundef 0, ptr noundef @.str.78, ptr noundef %51, ptr noundef %52, i32 noundef %55)
  store ptr %56, ptr %13, align 8
  %57 = getelementptr inbounds nuw %union.ListCell, ptr %12, i32 0, i32 0
  %58 = load ptr, ptr %57, align 8
  %59 = getelementptr inbounds nuw %union.ListCell, ptr %13, i32 0, i32 0
  %60 = load ptr, ptr %59, align 8
  %61 = call ptr @list_make2_impl(i32 noundef 1, ptr %58, ptr %60)
  store ptr %61, ptr %11, align 8
  %62 = load ptr, ptr %11, align 8
  %63 = load ptr, ptr %4, align 8
  %64 = getelementptr inbounds nuw %struct.A_Expr, ptr %63, i32 0, i32 5
  %65 = load i32, ptr %64, align 8
  %66 = call ptr @makeBoolExpr(i32 noundef 0, ptr noundef %62, i32 noundef %65)
  store ptr %66, ptr %8, align 8
  br label %229

67:                                               ; preds = %2
  %68 = load ptr, ptr %5, align 8
  %69 = load ptr, ptr %6, align 8
  %70 = load ptr, ptr %4, align 8
  %71 = getelementptr inbounds nuw %struct.A_Expr, ptr %70, i32 0, i32 5
  %72 = load i32, ptr %71, align 8
  %73 = call ptr @makeSimpleA_Expr(i32 noundef 0, ptr noundef @.str.79, ptr noundef %68, ptr noundef %69, i32 noundef %72)
  store ptr %73, ptr %14, align 8
  %74 = load ptr, ptr %5, align 8
  %75 = call ptr @copyObjectImpl(ptr noundef %74)
  %76 = load ptr, ptr %7, align 8
  %77 = load ptr, ptr %4, align 8
  %78 = getelementptr inbounds nuw %struct.A_Expr, ptr %77, i32 0, i32 5
  %79 = load i32, ptr %78, align 8
  %80 = call ptr @makeSimpleA_Expr(i32 noundef 0, ptr noundef @.str.80, ptr noundef %75, ptr noundef %76, i32 noundef %79)
  store ptr %80, ptr %15, align 8
  %81 = getelementptr inbounds nuw %union.ListCell, ptr %14, i32 0, i32 0
  %82 = load ptr, ptr %81, align 8
  %83 = getelementptr inbounds nuw %union.ListCell, ptr %15, i32 0, i32 0
  %84 = load ptr, ptr %83, align 8
  %85 = call ptr @list_make2_impl(i32 noundef 1, ptr %82, ptr %84)
  store ptr %85, ptr %11, align 8
  %86 = load ptr, ptr %11, align 8
  %87 = load ptr, ptr %4, align 8
  %88 = getelementptr inbounds nuw %struct.A_Expr, ptr %87, i32 0, i32 5
  %89 = load i32, ptr %88, align 8
  %90 = call ptr @makeBoolExpr(i32 noundef 1, ptr noundef %86, i32 noundef %89)
  store ptr %90, ptr %8, align 8
  br label %229

91:                                               ; preds = %2
  %92 = load ptr, ptr %5, align 8
  %93 = load ptr, ptr %6, align 8
  %94 = load ptr, ptr %4, align 8
  %95 = getelementptr inbounds nuw %struct.A_Expr, ptr %94, i32 0, i32 5
  %96 = load i32, ptr %95, align 8
  %97 = call ptr @makeSimpleA_Expr(i32 noundef 0, ptr noundef @.str.77, ptr noundef %92, ptr noundef %93, i32 noundef %96)
  store ptr %97, ptr %16, align 8
  %98 = load ptr, ptr %5, align 8
  %99 = call ptr @copyObjectImpl(ptr noundef %98)
  %100 = load ptr, ptr %7, align 8
  %101 = load ptr, ptr %4, align 8
  %102 = getelementptr inbounds nuw %struct.A_Expr, ptr %101, i32 0, i32 5
  %103 = load i32, ptr %102, align 8
  %104 = call ptr @makeSimpleA_Expr(i32 noundef 0, ptr noundef @.str.78, ptr noundef %99, ptr noundef %100, i32 noundef %103)
  store ptr %104, ptr %17, align 8
  %105 = getelementptr inbounds nuw %union.ListCell, ptr %16, i32 0, i32 0
  %106 = load ptr, ptr %105, align 8
  %107 = getelementptr inbounds nuw %union.ListCell, ptr %17, i32 0, i32 0
  %108 = load ptr, ptr %107, align 8
  %109 = call ptr @list_make2_impl(i32 noundef 1, ptr %106, ptr %108)
  store ptr %109, ptr %11, align 8
  %110 = load ptr, ptr %11, align 8
  %111 = load ptr, ptr %4, align 8
  %112 = getelementptr inbounds nuw %struct.A_Expr, ptr %111, i32 0, i32 5
  %113 = load i32, ptr %112, align 8
  %114 = call ptr @makeBoolExpr(i32 noundef 0, ptr noundef %110, i32 noundef %113)
  store ptr %114, ptr %9, align 8
  %115 = load ptr, ptr %5, align 8
  %116 = call ptr @copyObjectImpl(ptr noundef %115)
  %117 = load ptr, ptr %7, align 8
  %118 = call ptr @copyObjectImpl(ptr noundef %117)
  %119 = load ptr, ptr %4, align 8
  %120 = getelementptr inbounds nuw %struct.A_Expr, ptr %119, i32 0, i32 5
  %121 = load i32, ptr %120, align 8
  %122 = call ptr @makeSimpleA_Expr(i32 noundef 0, ptr noundef @.str.77, ptr noundef %116, ptr noundef %118, i32 noundef %121)
  store ptr %122, ptr %18, align 8
  %123 = load ptr, ptr %5, align 8
  %124 = call ptr @copyObjectImpl(ptr noundef %123)
  %125 = load ptr, ptr %6, align 8
  %126 = call ptr @copyObjectImpl(ptr noundef %125)
  %127 = load ptr, ptr %4, align 8
  %128 = getelementptr inbounds nuw %struct.A_Expr, ptr %127, i32 0, i32 5
  %129 = load i32, ptr %128, align 8
  %130 = call ptr @makeSimpleA_Expr(i32 noundef 0, ptr noundef @.str.78, ptr noundef %124, ptr noundef %126, i32 noundef %129)
  store ptr %130, ptr %19, align 8
  %131 = getelementptr inbounds nuw %union.ListCell, ptr %18, i32 0, i32 0
  %132 = load ptr, ptr %131, align 8
  %133 = getelementptr inbounds nuw %union.ListCell, ptr %19, i32 0, i32 0
  %134 = load ptr, ptr %133, align 8
  %135 = call ptr @list_make2_impl(i32 noundef 1, ptr %132, ptr %134)
  store ptr %135, ptr %11, align 8
  %136 = load ptr, ptr %11, align 8
  %137 = load ptr, ptr %4, align 8
  %138 = getelementptr inbounds nuw %struct.A_Expr, ptr %137, i32 0, i32 5
  %139 = load i32, ptr %138, align 8
  %140 = call ptr @makeBoolExpr(i32 noundef 0, ptr noundef %136, i32 noundef %139)
  store ptr %140, ptr %10, align 8
  %141 = load ptr, ptr %9, align 8
  store ptr %141, ptr %20, align 8
  %142 = load ptr, ptr %10, align 8
  store ptr %142, ptr %21, align 8
  %143 = getelementptr inbounds nuw %union.ListCell, ptr %20, i32 0, i32 0
  %144 = load ptr, ptr %143, align 8
  %145 = getelementptr inbounds nuw %union.ListCell, ptr %21, i32 0, i32 0
  %146 = load ptr, ptr %145, align 8
  %147 = call ptr @list_make2_impl(i32 noundef 1, ptr %144, ptr %146)
  store ptr %147, ptr %11, align 8
  %148 = load ptr, ptr %11, align 8
  %149 = load ptr, ptr %4, align 8
  %150 = getelementptr inbounds nuw %struct.A_Expr, ptr %149, i32 0, i32 5
  %151 = load i32, ptr %150, align 8
  %152 = call ptr @makeBoolExpr(i32 noundef 1, ptr noundef %148, i32 noundef %151)
  store ptr %152, ptr %8, align 8
  br label %229

153:                                              ; preds = %2
  %154 = load ptr, ptr %5, align 8
  %155 = load ptr, ptr %6, align 8
  %156 = load ptr, ptr %4, align 8
  %157 = getelementptr inbounds nuw %struct.A_Expr, ptr %156, i32 0, i32 5
  %158 = load i32, ptr %157, align 8
  %159 = call ptr @makeSimpleA_Expr(i32 noundef 0, ptr noundef @.str.79, ptr noundef %154, ptr noundef %155, i32 noundef %158)
  store ptr %159, ptr %22, align 8
  %160 = load ptr, ptr %5, align 8
  %161 = call ptr @copyObjectImpl(ptr noundef %160)
  %162 = load ptr, ptr %7, align 8
  %163 = load ptr, ptr %4, align 8
  %164 = getelementptr inbounds nuw %struct.A_Expr, ptr %163, i32 0, i32 5
  %165 = load i32, ptr %164, align 8
  %166 = call ptr @makeSimpleA_Expr(i32 noundef 0, ptr noundef @.str.80, ptr noundef %161, ptr noundef %162, i32 noundef %165)
  store ptr %166, ptr %23, align 8
  %167 = getelementptr inbounds nuw %union.ListCell, ptr %22, i32 0, i32 0
  %168 = load ptr, ptr %167, align 8
  %169 = getelementptr inbounds nuw %union.ListCell, ptr %23, i32 0, i32 0
  %170 = load ptr, ptr %169, align 8
  %171 = call ptr @list_make2_impl(i32 noundef 1, ptr %168, ptr %170)
  store ptr %171, ptr %11, align 8
  %172 = load ptr, ptr %11, align 8
  %173 = load ptr, ptr %4, align 8
  %174 = getelementptr inbounds nuw %struct.A_Expr, ptr %173, i32 0, i32 5
  %175 = load i32, ptr %174, align 8
  %176 = call ptr @makeBoolExpr(i32 noundef 1, ptr noundef %172, i32 noundef %175)
  store ptr %176, ptr %9, align 8
  %177 = load ptr, ptr %5, align 8
  %178 = call ptr @copyObjectImpl(ptr noundef %177)
  %179 = load ptr, ptr %7, align 8
  %180 = call ptr @copyObjectImpl(ptr noundef %179)
  %181 = load ptr, ptr %4, align 8
  %182 = getelementptr inbounds nuw %struct.A_Expr, ptr %181, i32 0, i32 5
  %183 = load i32, ptr %182, align 8
  %184 = call ptr @makeSimpleA_Expr(i32 noundef 0, ptr noundef @.str.79, ptr noundef %178, ptr noundef %180, i32 noundef %183)
  store ptr %184, ptr %24, align 8
  %185 = load ptr, ptr %5, align 8
  %186 = call ptr @copyObjectImpl(ptr noundef %185)
  %187 = load ptr, ptr %6, align 8
  %188 = call ptr @copyObjectImpl(ptr noundef %187)
  %189 = load ptr, ptr %4, align 8
  %190 = getelementptr inbounds nuw %struct.A_Expr, ptr %189, i32 0, i32 5
  %191 = load i32, ptr %190, align 8
  %192 = call ptr @makeSimpleA_Expr(i32 noundef 0, ptr noundef @.str.80, ptr noundef %186, ptr noundef %188, i32 noundef %191)
  store ptr %192, ptr %25, align 8
  %193 = getelementptr inbounds nuw %union.ListCell, ptr %24, i32 0, i32 0
  %194 = load ptr, ptr %193, align 8
  %195 = getelementptr inbounds nuw %union.ListCell, ptr %25, i32 0, i32 0
  %196 = load ptr, ptr %195, align 8
  %197 = call ptr @list_make2_impl(i32 noundef 1, ptr %194, ptr %196)
  store ptr %197, ptr %11, align 8
  %198 = load ptr, ptr %11, align 8
  %199 = load ptr, ptr %4, align 8
  %200 = getelementptr inbounds nuw %struct.A_Expr, ptr %199, i32 0, i32 5
  %201 = load i32, ptr %200, align 8
  %202 = call ptr @makeBoolExpr(i32 noundef 1, ptr noundef %198, i32 noundef %201)
  store ptr %202, ptr %10, align 8
  %203 = load ptr, ptr %9, align 8
  store ptr %203, ptr %26, align 8
  %204 = load ptr, ptr %10, align 8
  store ptr %204, ptr %27, align 8
  %205 = getelementptr inbounds nuw %union.ListCell, ptr %26, i32 0, i32 0
  %206 = load ptr, ptr %205, align 8
  %207 = getelementptr inbounds nuw %union.ListCell, ptr %27, i32 0, i32 0
  %208 = load ptr, ptr %207, align 8
  %209 = call ptr @list_make2_impl(i32 noundef 1, ptr %206, ptr %208)
  store ptr %209, ptr %11, align 8
  %210 = load ptr, ptr %11, align 8
  %211 = load ptr, ptr %4, align 8
  %212 = getelementptr inbounds nuw %struct.A_Expr, ptr %211, i32 0, i32 5
  %213 = load i32, ptr %212, align 8
  %214 = call ptr @makeBoolExpr(i32 noundef 0, ptr noundef %210, i32 noundef %213)
  store ptr %214, ptr %8, align 8
  br label %229

215:                                              ; preds = %2
  br label %216

216:                                              ; preds = %215
  br i1 true, label %217, label %219

217:                                              ; preds = %216
  %218 = call zeroext i1 @errstart_cold(i32 noundef 21, ptr noundef null) #9
  br i1 %218, label %221, label %226

219:                                              ; preds = %216
  %220 = call zeroext i1 @errstart(i32 noundef 21, ptr noundef null)
  br i1 %220, label %221, label %226

221:                                              ; preds = %219, %217
  %222 = load ptr, ptr %4, align 8
  %223 = getelementptr inbounds nuw %struct.A_Expr, ptr %222, i32 0, i32 1
  %224 = load i32, ptr %223, align 4
  %225 = call i32 (ptr, ...) @errmsg_internal(ptr noundef @.str.40, i32 noundef %224)
  call void @errfinish(ptr noundef @.str.41, i32 noundef 1367, ptr noundef @__func__.transformAExprBetween)
  br label %226

226:                                              ; preds = %221, %219, %217
  unreachable

227:                                              ; No predecessors!
  br label %228

228:                                              ; preds = %227
  store ptr null, ptr %8, align 8
  br label %229

229:                                              ; preds = %228, %153, %91, %67, %43
  %230 = load ptr, ptr %3, align 8
  %231 = load ptr, ptr %8, align 8
  %232 = call ptr @transformExprRecurse(ptr noundef %230, ptr noundef %231)
  call void @llvm.lifetime.end.p0(i64 8, ptr %11) #8
  call void @llvm.lifetime.end.p0(i64 8, ptr %10) #8
  call void @llvm.lifetime.end.p0(i64 8, ptr %9) #8
  call void @llvm.lifetime.end.p0(i64 8, ptr %8) #8
  call void @llvm.lifetime.end.p0(i64 8, ptr %7) #8
  call void @llvm.lifetime.end.p0(i64 8, ptr %6) #8
  call void @llvm.lifetime.end.p0(i64 8, ptr %5) #8
  ret ptr %232
}