; Function Attrs: nounwind uwtable
define internal fastcc ptr @transformAExprBetween(ptr noundef %0, ptr noundef nonnull readonly captures(none) %1) unnamed_addr #0 {
  %3 = getelementptr inbounds nuw i8, ptr %1, i64 16
  %4 = load ptr, ptr %3, align 8
  %5 = getelementptr inbounds nuw i8, ptr %1, i64 24
  %6 = load ptr, ptr %5, align 8
  %7 = getelementptr i8, ptr %6, i64 16
  %.val = load ptr, ptr %7, align 8
  %8 = load ptr, ptr %.val, align 8
  %9 = getelementptr inbounds nuw i8, ptr %.val, i64 8
  %10 = load ptr, ptr %9, align 8
  %11 = getelementptr inbounds nuw i8, ptr %1, i64 4
  %12 = load i32, ptr %11, align 4
  switch i32 %12, label %81 [
    i32 10, label %13
    i32 11, label %23
    i32 12, label %33
    i32 13, label %57
  ]

13:                                               ; preds = %2
  %14 = getelementptr inbounds nuw i8, ptr %1, i64 32
  %15 = load i32, ptr %14, align 8
  %16 = tail call ptr @makeSimpleA_Expr(i32 noundef 0, ptr noundef nonnull @.str.77, ptr noundef %4, ptr noundef %8, i32 noundef %15) #9
  %17 = tail call ptr @copyObjectImpl(ptr noundef %4) #9
  %18 = load i32, ptr %14, align 8
  %19 = tail call ptr @makeSimpleA_Expr(i32 noundef 0, ptr noundef nonnull @.str.78, ptr noundef %17, ptr noundef %10, i32 noundef %18) #9
  %20 = tail call ptr @list_make2_impl(i32 noundef 1, ptr %16, ptr %19) #9
  %21 = load i32, ptr %14, align 8
  %22 = tail call ptr @makeBoolExpr(i32 noundef 0, ptr noundef %20, i32 noundef %21) #9
  br label %85

23:                                               ; preds = %2
  %24 = getelementptr inbounds nuw i8, ptr %1, i64 32
  %25 = load i32, ptr %24, align 8
  %26 = tail call ptr @makeSimpleA_Expr(i32 noundef 0, ptr noundef nonnull @.str.79, ptr noundef %4, ptr noundef %8, i32 noundef %25) #9
  %27 = tail call ptr @copyObjectImpl(ptr noundef %4) #9
  %28 = load i32, ptr %24, align 8
  %29 = tail call ptr @makeSimpleA_Expr(i32 noundef 0, ptr noundef nonnull @.str.80, ptr noundef %27, ptr noundef %10, i32 noundef %28) #9
  %30 = tail call ptr @list_make2_impl(i32 noundef 1, ptr %26, ptr %29) #9
  %31 = load i32, ptr %24, align 8
  %32 = tail call ptr @makeBoolExpr(i32 noundef 1, ptr noundef %30, i32 noundef %31) #9
  br label %85

33:                                               ; preds = %2
  %34 = getelementptr inbounds nuw i8, ptr %1, i64 32
  %35 = load i32, ptr %34, align 8
  %36 = tail call ptr @makeSimpleA_Expr(i32 noundef 0, ptr noundef nonnull @.str.77, ptr noundef %4, ptr noundef %8, i32 noundef %35) #9
  %37 = tail call ptr @copyObjectImpl(ptr noundef %4) #9
  %38 = load i32, ptr %34, align 8
  %39 = tail call ptr @makeSimpleA_Expr(i32 noundef 0, ptr noundef nonnull @.str.78, ptr noundef %37, ptr noundef %10, i32 noundef %38) #9
  %40 = tail call ptr @list_make2_impl(i32 noundef 1, ptr %36, ptr %39) #9
  %41 = load i32, ptr %34, align 8
  %42 = tail call ptr @makeBoolExpr(i32 noundef 0, ptr noundef %40, i32 noundef %41) #9
  %43 = tail call ptr @copyObjectImpl(ptr noundef %4) #9
  %44 = tail call ptr @copyObjectImpl(ptr noundef %10) #9
  %45 = load i32, ptr %34, align 8
  %46 = tail call ptr @makeSimpleA_Expr(i32 noundef 0, ptr noundef nonnull @.str.77, ptr noundef %43, ptr noundef %44, i32 noundef %45) #9
  %47 = tail call ptr @copyObjectImpl(ptr noundef %4) #9
  %48 = tail call ptr @copyObjectImpl(ptr noundef %8) #9
  %49 = load i32, ptr %34, align 8
  %50 = tail call ptr @makeSimpleA_Expr(i32 noundef 0, ptr noundef nonnull @.str.78, ptr noundef %47, ptr noundef %48, i32 noundef %49) #9
  %51 = tail call ptr @list_make2_impl(i32 noundef 1, ptr %46, ptr %50) #9
  %52 = load i32, ptr %34, align 8
  %53 = tail call ptr @makeBoolExpr(i32 noundef 0, ptr noundef %51, i32 noundef %52) #9
  %54 = tail call ptr @list_make2_impl(i32 noundef 1, ptr %42, ptr %53) #9
  %55 = load i32, ptr %34, align 8
  %56 = tail call ptr @makeBoolExpr(i32 noundef 1, ptr noundef %54, i32 noundef %55) #9
  br label %85

57:                                               ; preds = %2
  %58 = getelementptr inbounds nuw i8, ptr %1, i64 32
  %59 = load i32, ptr %58, align 8
  %60 = tail call ptr @makeSimpleA_Expr(i32 noundef 0, ptr noundef nonnull @.str.79, ptr noundef %4, ptr noundef %8, i32 noundef %59) #9
  %61 = tail call ptr @copyObjectImpl(ptr noundef %4) #9
  %62 = load i32, ptr %58, align 8
  %63 = tail call ptr @makeSimpleA_Expr(i32 noundef 0, ptr noundef nonnull @.str.80, ptr noundef %61, ptr noundef %10, i32 noundef %62) #9
  %64 = tail call ptr @list_make2_impl(i32 noundef 1, ptr %60, ptr %63) #9
  %65 = load i32, ptr %58, align 8
  %66 = tail call ptr @makeBoolExpr(i32 noundef 1, ptr noundef %64, i32 noundef %65) #9
  %67 = tail call ptr @copyObjectImpl(ptr noundef %4) #9
  %68 = tail call ptr @copyObjectImpl(ptr noundef %10) #9
  %69 = load i32, ptr %58, align 8
  %70 = tail call ptr @makeSimpleA_Expr(i32 noundef 0, ptr noundef nonnull @.str.79, ptr noundef %67, ptr noundef %68, i32 noundef %69) #9
  %71 = tail call ptr @copyObjectImpl(ptr noundef %4) #9
  %72 = tail call ptr @copyObjectImpl(ptr noundef %8) #9
  %73 = load i32, ptr %58, align 8
  %74 = tail call ptr @makeSimpleA_Expr(i32 noundef 0, ptr noundef nonnull @.str.80, ptr noundef %71, ptr noundef %72, i32 noundef %73) #9
  %75 = tail call ptr @list_make2_impl(i32 noundef 1, ptr %70, ptr %74) #9
  %76 = load i32, ptr %58, align 8
  %77 = tail call ptr @makeBoolExpr(i32 noundef 1, ptr noundef %75, i32 noundef %76) #9
  %78 = tail call ptr @list_make2_impl(i32 noundef 1, ptr %66, ptr %77) #9
  %79 = load i32, ptr %58, align 8
  %80 = tail call ptr @makeBoolExpr(i32 noundef 0, ptr noundef %78, i32 noundef %79) #9
  br label %85

81:                                               ; preds = %2
  %82 = tail call zeroext i1 @errstart_cold(i32 noundef 21, ptr noundef null) #10
  tail call void @llvm.assume(i1 %82)
  %83 = load i32, ptr %11, align 4
  %84 = tail call i32 (ptr, ...) @errmsg_internal(ptr noundef nonnull @.str.40, i32 noundef %83) #9
  tail call void @errfinish(ptr noundef nonnull @.str.41, i32 noundef 1367, ptr noundef nonnull @__func__.transformAExprBetween) #9
  unreachable

85:                                               ; preds = %57, %33, %23, %13
  %.0 = phi ptr [ %80, %57 ], [ %56, %33 ], [ %32, %23 ], [ %22, %13 ]
  %86 = tail call fastcc ptr @transformExprRecurse(ptr noundef %0, ptr noundef %.0)
  ret ptr %86
}